SF:/home/kd/jamliquor/src/importer.rs
FN:29,_RINvMNtCskCqsO1Mcf26_9jamliquor8importerNtB3_8Importer12import_blockRNtNtCshtXwObSDtjQ_3std4path7PathBufEB5_
FN:34,_RNCINvMNtCskCqsO1Mcf26_9jamliquor8importerNtB5_8Importer12import_blockRNtNtCshtXwObSDtjQ_3std4path7PathBufE0B7_
FN:40,_RNCINvMNtCskCqsO1Mcf26_9jamliquor8importerNtB5_8Importer12import_blockRNtNtCshtXwObSDtjQ_3std4path7PathBufEs0_0B7_
FN:36,_RNCINvMNtCskCqsO1Mcf26_9jamliquor8importerNtB5_8Importer12import_blockRNtNtCshtXwObSDtjQ_3std4path7PathBufEs_0B7_
FN:23,_RNvMNtCskCqsO1Mcf26_9jamliquor8importerNtB2_8Importer17set_initial_state
FN:164,_RNvXs_NtCskCqsO1Mcf26_9jamliquor8importerNtB4_8ImporterNtNtCs54tgE0qq4eT_4core7default7Default7default
FN:61,_RNvMNtCskCqsO1Mcf26_9jamliquor8importerNtB2_8Importer15validate_header
FN:135,_RNvMNtCskCqsO1Mcf26_9jamliquor8importerNtB2_8Importer18validate_extrinsic
FN:53,_RNvMNtCskCqsO1Mcf26_9jamliquor8importerNtB2_8Importer24validate_and_apply_block
FN:14,_RNvMNtCskCqsO1Mcf26_9jamliquor8importerNtB2_8Importer3new
FN:158,_RNvMNtCskCqsO1Mcf26_9jamliquor8importerNtB2_8Importer5state
FN:164,_RNvXs_NtCs2UjflPAciXa_9jamliquor8importerNtB4_8ImporterNtNtCs54tgE0qq4eT_4core7default7Default7default
FN:61,_RNvMNtCs2UjflPAciXa_9jamliquor8importerNtB2_8Importer15validate_header
FN:23,_RNvMNtCs2UjflPAciXa_9jamliquor8importerNtB2_8Importer17set_initial_state
FN:135,_RNvMNtCs2UjflPAciXa_9jamliquor8importerNtB2_8Importer18validate_extrinsic
FN:53,_RNvMNtCs2UjflPAciXa_9jamliquor8importerNtB2_8Importer24validate_and_apply_block
FN:14,_RNvMNtCs2UjflPAciXa_9jamliquor8importerNtB2_8Importer3new
FN:158,_RNvMNtCs2UjflPAciXa_9jamliquor8importerNtB2_8Importer5state
FN:29,_RINvMNtCs2UjflPAciXa_9jamliquor8importerNtB3_8Importer12import_blockRNtNtCshtXwObSDtjQ_3std4path7PathBufEB5_
FN:34,_RNCINvMNtCs2UjflPAciXa_9jamliquor8importerNtB5_8Importer12import_blockRNtNtCshtXwObSDtjQ_3std4path7PathBufE0B7_
FN:40,_RNCINvMNtCs2UjflPAciXa_9jamliquor8importerNtB5_8Importer12import_blockRNtNtCshtXwObSDtjQ_3std4path7PathBufEs0_0B7_
FN:36,_RNCINvMNtCs2UjflPAciXa_9jamliquor8importerNtB5_8Importer12import_blockRNtNtCshtXwObSDtjQ_3std4path7PathBufEs_0B7_
FN:29,_RINvMNtCsck7938GCoVe_9jamliquor8importerNtB3_8Importer12import_blockpEB5_
FN:34,_RNCINvMNtCsck7938GCoVe_9jamliquor8importerNtB5_8Importer12import_blockpE0B7_
FN:40,_RNCINvMNtCsck7938GCoVe_9jamliquor8importerNtB5_8Importer12import_blockpEs0_0B7_
FN:36,_RNCINvMNtCsck7938GCoVe_9jamliquor8importerNtB5_8Importer12import_blockpEs_0B7_
FN:61,_RNvMNtCsck7938GCoVe_9jamliquor8importerNtB2_8Importer15validate_header
FN:23,_RNvMNtCsck7938GCoVe_9jamliquor8importerNtB2_8Importer17set_initial_state
FN:135,_RNvMNtCsck7938GCoVe_9jamliquor8importerNtB2_8Importer18validate_extrinsic
FN:53,_RNvMNtCsck7938GCoVe_9jamliquor8importerNtB2_8Importer24validate_and_apply_block
FN:14,_RNvMNtCsck7938GCoVe_9jamliquor8importerNtB2_8Importer3new
FN:158,_RNvMNtCsck7938GCoVe_9jamliquor8importerNtB2_8Importer5state
FN:164,_RNvXs_NtCsck7938GCoVe_9jamliquor8importerNtB4_8ImporterNtNtCs54tgE0qq4eT_4core7default7Default7default
FN:29,_RINvMNtCs8sy5ze5XGxF_9jamliquor8importerNtB3_8Importer12import_blockRNtNtCshtXwObSDtjQ_3std4path7PathBufECsi8aaXscFoSs_3lib
FN:34,_RNCINvMNtCs8sy5ze5XGxF_9jamliquor8importerNtB5_8Importer12import_blockRNtNtCshtXwObSDtjQ_3std4path7PathBufE0Csi8aaXscFoSs_3lib
FN:40,_RNCINvMNtCs8sy5ze5XGxF_9jamliquor8importerNtB5_8Importer12import_blockRNtNtCshtXwObSDtjQ_3std4path7PathBufEs0_0Csi8aaXscFoSs_3lib
FN:36,_RNCINvMNtCs8sy5ze5XGxF_9jamliquor8importerNtB5_8Importer12import_blockRNtNtCshtXwObSDtjQ_3std4path7PathBufEs_0Csi8aaXscFoSs_3lib
FN:61,_RNvMNtCs8sy5ze5XGxF_9jamliquor8importerNtB2_8Importer15validate_header
FN:23,_RNvMNtCs8sy5ze5XGxF_9jamliquor8importerNtB2_8Importer17set_initial_state
FN:135,_RNvMNtCs8sy5ze5XGxF_9jamliquor8importerNtB2_8Importer18validate_extrinsic
FN:53,_RNvMNtCs8sy5ze5XGxF_9jamliquor8importerNtB2_8Importer24validate_and_apply_block
FN:14,_RNvMNtCs8sy5ze5XGxF_9jamliquor8importerNtB2_8Importer3new
FN:158,_RNvMNtCs8sy5ze5XGxF_9jamliquor8importerNtB2_8Importer5state
FN:164,_RNvXs_NtCs8sy5ze5XGxF_9jamliquor8importerNtB4_8ImporterNtNtCs54tgE0qq4eT_4core7default7Default7default
FN:29,_RINvMNtCs8sy5ze5XGxF_9jamliquor8importerNtB3_8Importer12import_blockpEB5_
FN:34,_RNCINvMNtCs8sy5ze5XGxF_9jamliquor8importerNtB5_8Importer12import_blockpE0B7_
FN:40,_RNCINvMNtCs8sy5ze5XGxF_9jamliquor8importerNtB5_8Importer12import_blockpEs0_0B7_
FN:36,_RNCINvMNtCs8sy5ze5XGxF_9jamliquor8importerNtB5_8Importer12import_blockpEs_0B7_
FNDA:0,_RINvMNtCskCqsO1Mcf26_9jamliquor8importerNtB3_8Importer12import_blockRNtNtCshtXwObSDtjQ_3std4path7PathBufEB5_
FNDA:0,_RNCINvMNtCskCqsO1Mcf26_9jamliquor8importerNtB5_8Importer12import_blockRNtNtCshtXwObSDtjQ_3std4path7PathBufE0B7_
FNDA:0,_RNCINvMNtCskCqsO1Mcf26_9jamliquor8importerNtB5_8Importer12import_blockRNtNtCshtXwObSDtjQ_3std4path7PathBufEs0_0B7_
FNDA:0,_RNCINvMNtCskCqsO1Mcf26_9jamliquor8importerNtB5_8Importer12import_blockRNtNtCshtXwObSDtjQ_3std4path7PathBufEs_0B7_
FNDA:0,_RNvMNtCskCqsO1Mcf26_9jamliquor8importerNtB2_8Importer17set_initial_state
FNDA:0,_RNvXs_NtCskCqsO1Mcf26_9jamliquor8importerNtB4_8ImporterNtNtCs54tgE0qq4eT_4core7default7Default7default
FNDA:0,_RNvMNtCskCqsO1Mcf26_9jamliquor8importerNtB2_8Importer15validate_header
FNDA:0,_RNvMNtCskCqsO1Mcf26_9jamliquor8importerNtB2_8Importer18validate_extrinsic
FNDA:0,_RNvMNtCskCqsO1Mcf26_9jamliquor8importerNtB2_8Importer24validate_and_apply_block
FNDA:0,_RNvMNtCskCqsO1Mcf26_9jamliquor8importerNtB2_8Importer3new
FNDA:0,_RNvMNtCskCqsO1Mcf26_9jamliquor8importerNtB2_8Importer5state
FNDA:0,_RNvXs_NtCs2UjflPAciXa_9jamliquor8importerNtB4_8ImporterNtNtCs54tgE0qq4eT_4core7default7Default7default
FNDA:1,_RNvMNtCs2UjflPAciXa_9jamliquor8importerNtB2_8Importer15validate_header
FNDA:1,_RNvMNtCs2UjflPAciXa_9jamliquor8importerNtB2_8Importer17set_initial_state
FNDA:1,_RNvMNtCs2UjflPAciXa_9jamliquor8importerNtB2_8Importer18validate_extrinsic
FNDA:1,_RNvMNtCs2UjflPAciXa_9jamliquor8importerNtB2_8Importer24validate_and_apply_block
FNDA:1,_RNvMNtCs2UjflPAciXa_9jamliquor8importerNtB2_8Importer3new
FNDA:3,_RNvMNtCs2UjflPAciXa_9jamliquor8importerNtB2_8Importer5state
FNDA:1,_RINvMNtCs2UjflPAciXa_9jamliquor8importerNtB3_8Importer12import_blockRNtNtCshtXwObSDtjQ_3std4path7PathBufEB5_
FNDA:0,_RNCINvMNtCs2UjflPAciXa_9jamliquor8importerNtB5_8Importer12import_blockRNtNtCshtXwObSDtjQ_3std4path7PathBufE0B7_
FNDA:0,_RNCINvMNtCs2UjflPAciXa_9jamliquor8importerNtB5_8Importer12import_blockRNtNtCshtXwObSDtjQ_3std4path7PathBufEs0_0B7_
FNDA:0,_RNCINvMNtCs2UjflPAciXa_9jamliquor8importerNtB5_8Importer12import_blockRNtNtCshtXwObSDtjQ_3std4path7PathBufEs_0B7_
FNDA:0,_RINvMNtCsck7938GCoVe_9jamliquor8importerNtB3_8Importer12import_blockpEB5_
FNDA:0,_RNCINvMNtCsck7938GCoVe_9jamliquor8importerNtB5_8Importer12import_blockpE0B7_
FNDA:0,_RNCINvMNtCsck7938GCoVe_9jamliquor8importerNtB5_8Importer12import_blockpEs0_0B7_
FNDA:0,_RNCINvMNtCsck7938GCoVe_9jamliquor8importerNtB5_8Importer12import_blockpEs_0B7_
FNDA:0,_RNvMNtCsck7938GCoVe_9jamliquor8importerNtB2_8Importer15validate_header
FNDA:0,_RNvMNtCsck7938GCoVe_9jamliquor8importerNtB2_8Importer17set_initial_state
FNDA:0,_RNvMNtCsck7938GCoVe_9jamliquor8importerNtB2_8Importer18validate_extrinsic
FNDA:0,_RNvMNtCsck7938GCoVe_9jamliquor8importerNtB2_8Importer24validate_and_apply_block
FNDA:0,_RNvMNtCsck7938GCoVe_9jamliquor8importerNtB2_8Importer3new
FNDA:0,_RNvMNtCsck7938GCoVe_9jamliquor8importerNtB2_8Importer5state
FNDA:0,_RNvXs_NtCsck7938GCoVe_9jamliquor8importerNtB4_8ImporterNtNtCs54tgE0qq4eT_4core7default7Default7default
FNDA:6,_RINvMNtCs8sy5ze5XGxF_9jamliquor8importerNtB3_8Importer12import_blockRNtNtCshtXwObSDtjQ_3std4path7PathBufECsi8aaXscFoSs_3lib
FNDA:2,_RNCINvMNtCs8sy5ze5XGxF_9jamliquor8importerNtB5_8Importer12import_blockRNtNtCshtXwObSDtjQ_3std4path7PathBufE0Csi8aaXscFoSs_3lib
FNDA:0,_RNCINvMNtCs8sy5ze5XGxF_9jamliquor8importerNtB5_8Importer12import_blockRNtNtCshtXwObSDtjQ_3std4path7PathBufEs0_0Csi8aaXscFoSs_3lib
FNDA:0,_RNCINvMNtCs8sy5ze5XGxF_9jamliquor8importerNtB5_8Importer12import_blockRNtNtCshtXwObSDtjQ_3std4path7PathBufEs_0Csi8aaXscFoSs_3lib
FNDA:4,_RNvMNtCs8sy5ze5XGxF_9jamliquor8importerNtB2_8Importer15validate_header
FNDA:0,_RNvMNtCs8sy5ze5XGxF_9jamliquor8importerNtB2_8Importer17set_initial_state
FNDA:4,_RNvMNtCs8sy5ze5XGxF_9jamliquor8importerNtB2_8Importer18validate_extrinsic
FNDA:4,_RNvMNtCs8sy5ze5XGxF_9jamliquor8importerNtB2_8Importer24validate_and_apply_block
FNDA:6,_RNvMNtCs8sy5ze5XGxF_9jamliquor8importerNtB2_8Importer3new
FNDA:0,_RNvMNtCs8sy5ze5XGxF_9jamliquor8importerNtB2_8Importer5state
FNDA:0,_RNvXs_NtCs8sy5ze5XGxF_9jamliquor8importerNtB4_8ImporterNtNtCs54tgE0qq4eT_4core7default7Default7default
FNDA:0,_RINvMNtCs8sy5ze5XGxF_9jamliquor8importerNtB3_8Importer12import_blockpEB5_
FNDA:0,_RNCINvMNtCs8sy5ze5XGxF_9jamliquor8importerNtB5_8Importer12import_blockpE0B7_
FNDA:0,_RNCINvMNtCs8sy5ze5XGxF_9jamliquor8importerNtB5_8Importer12import_blockpEs0_0B7_
FNDA:0,_RNCINvMNtCs8sy5ze5XGxF_9jamliquor8importerNtB5_8Importer12import_blockpEs_0B7_
FNF:11
FNH:8
DA:14,7
DA:15,7
DA:16,7
DA:17,7
DA:18,7
DA:19,7
DA:20,7
DA:23,1
DA:24,1
DA:25,1
DA:26,1
DA:29,7
DA:30,7
DA:33,7
DA:34,7
DA:35,5
DA:36,5
DA:39,5
DA:40,5
DA:43,5
DA:44,5
DA:45,5
DA:47,5
DA:48,5
DA:49,5
DA:50,5
DA:51,7
DA:53,5
DA:54,5
DA:55,5
DA:56,5
DA:57,5
DA:58,5
DA:61,5
DA:62,5
DA:63,5
DA:64,5
DA:65,5
DA:66,5
DA:67,0
DA:68,0
DA:71,0
DA:72,0
DA:73,0
DA:74,0
DA:75,0
DA:76,5
DA:79,5
DA:80,1
DA:81,1
DA:82,0
DA:83,0
DA:84,0
DA:85,0
DA:87,0
DA:88,0
DA:89,0
DA:90,0
DA:91,0
DA:92,1
DA:93,4
DA:96,5
DA:97,1
DA:98,0
DA:99,0
DA:100,0
DA:101,0
DA:103,0
DA:104,0
DA:105,0
DA:106,0
DA:107,0
DA:108,1
DA:109,4
DA:112,5
DA:114,5
DA:117,5
DA:118,5
DA:119,0
DA:120,0
DA:121,0
DA:122,0
DA:124,0
DA:125,0
DA:126,0
DA:127,0
DA:128,0
DA:129,5
DA:130,0
DA:132,5
DA:133,5
DA:135,5
DA:136,5
DA:137,0
DA:138,0
DA:139,0
DA:140,0
DA:141,0
DA:142,0
DA:143,0
DA:145,0
DA:146,0
DA:147,0
DA:148,0
DA:149,0
DA:150,0
DA:151,0
DA:152,0
DA:154,5
DA:155,5
DA:156,5
DA:158,3
DA:159,3
DA:160,3
DA:164,0
DA:165,0
DA:166,0
BRF:0
BRH:0
LF:120
LH:63
end_of_record
SF:/home/kd/jamliquor/src/lib.rs
FN:14,_RNvNtCsck7938GCoVe_9jamliquor5testss_8it_works
FNDA:1,_RNvNtCsck7938GCoVe_9jamliquor5testss_8it_works
FNF:1
FNH:1
DA:14,1
DA:15,1
DA:16,1
DA:17,1
BRF:0
BRH:0
LF:4
LH:4
end_of_record
SF:/home/kd/jamliquor/src/main.rs
FN:8,_RNvCskCqsO1Mcf26_9jamliquor4main
FN:8,_RNvCs2UjflPAciXa_9jamliquor4main
FN:23,_RNvNtCs2UjflPAciXa_9jamliquor5testss_17test_block_import
FN:69,_RNCNvNtCs2UjflPAciXa_9jamliquor5testss_17test_block_import0B5_
FNDA:0,_RNvCskCqsO1Mcf26_9jamliquor4main
FNDA:0,_RNvCs2UjflPAciXa_9jamliquor4main
FNDA:1,_RNvNtCs2UjflPAciXa_9jamliquor5testss_17test_block_import
FNDA:3,_RNCNvNtCs2UjflPAciXa_9jamliquor5testss_17test_block_import0B5_
FNF:3
FNH:2
DA:8,0
DA:9,0
DA:10,0
DA:11,0
DA:12,0
DA:13,0
DA:14,0
DA:15,0
DA:23,1
DA:24,1
DA:25,1
DA:26,1
DA:27,1
DA:28,1
DA:29,1
DA:30,1
DA:31,1
DA:32,1
DA:33,1
DA:34,1
DA:35,1
DA:36,1
DA:37,1
DA:38,1
DA:39,1
DA:40,1
DA:41,1
DA:44,1
DA:45,1
DA:48,1
DA:51,1
DA:52,0
DA:53,0
DA:54,0
DA:55,0
DA:57,0
DA:58,0
DA:60,0
DA:62,1
DA:65,1
DA:66,1
DA:67,1
DA:68,1
DA:69,3
DA:70,1
DA:71,1
DA:72,1
DA:73,1
DA:74,1
DA:75,1
DA:76,0
DA:80,1
DA:81,1
DA:82,1
DA:83,0
DA:84,0
DA:85,0
DA:87,0
DA:90,1
DA:91,0
DA:92,0
DA:93,0
DA:94,0
DA:95,0
DA:96,0
DA:98,1
DA:101,1
DA:102,1
DA:103,0
DA:107,1
DA:110,1
DA:111,1
DA:112,0
DA:115,1
DA:116,1
BRF:0
BRH:0
LF:76
LH:48
end_of_record
SF:/home/kd/jamliquor/src/schema.rs
FN:58,_RNvMNtCskCqsO1Mcf26_9jamliquor6schemaNtB2_11TicketState13apply_tickets
FN:152,_RNvMs0_NtCskCqsO1Mcf26_9jamliquor6schemaNtB5_10OpaqueHash8as_bytes
FN:201,_RNvMs1_NtCskCqsO1Mcf26_9jamliquor6schemaNtB5_14TicketEnvelope8validate
FN:314,_RNvMs3_NtCskCqsO1Mcf26_9jamliquor6schemaNtB5_13EntropySource10from_bytes
FN:338,_RNvMs3_NtCskCqsO1Mcf26_9jamliquor6schemaNtB5_13EntropySource24validate_with_epoch_mark
FN:366,_RNvMs4_NtCskCqsO1Mcf26_9jamliquor6schemaNtB5_6Header16validate_entropy
FN:123,_RNvMs_NtCskCqsO1Mcf26_9jamliquor6schemaNtB4_5State11apply_block
FN:109,_RNvMs_NtCskCqsO1Mcf26_9jamliquor6schemaNtB4_5State13get_last_slot
FN:105,_RNvMs_NtCskCqsO1Mcf26_9jamliquor6schemaNtB4_5State3new
FN:171,_RNCINvXs0_NvXNvNtCskCqsO1Mcf26_9jamliquor6schemas3_1__NtBd_6HeaderNtNtCs4G1IbnFyWZE_5serde2de11Deserialize11deserializeNtB8_9___VisitorNtB14_7Visitor9visit_seqINtNtCs1c1XNOj4Xdi_10serde_json2de9SeqAccessINtNtB2C_4read6IoReadNtNtCshtXwObSDtjQ_3std2fs4FileEEE0Bf_
FN:171,_RNCINvXs0_NvXNvNtCskCqsO1Mcf26_9jamliquor6schemas3_1__NtBd_6HeaderNtNtCs4G1IbnFyWZE_5serde2de11Deserialize11deserializeNtB8_9___VisitorNtB14_7Visitor9visit_seqINtNtCs1c1XNOj4Xdi_10serde_json2de9SeqAccessINtNtB2C_4read6IoReadNtNtCshtXwObSDtjQ_3std2fs4FileEEEs_0Bf_
FN:193,_RNCINvXs0_NvXNvNtCskCqsO1Mcf26_9jamliquor6schemas5_1__NtBd_14TicketEnvelopeNtNtCs4G1IbnFyWZE_5serde2de11Deserialize11deserializeNtB8_9___VisitorNtB1d_7Visitor9visit_seqINtNtCs1c1XNOj4Xdi_10serde_json2de9SeqAccessINtNtB2L_4read6IoReadNtNtCshtXwObSDtjQ_3std2fs4FileEEE0Bf_
FN:228,_RNCINvXs0_NvXNvNtCskCqsO1Mcf26_9jamliquor6schemas9_1__NtBd_8PreimageNtNtCs4G1IbnFyWZE_5serde2de11Deserialize11deserializeNtB8_9___VisitorNtB16_7Visitor9visit_seqINtNtCs1c1XNOj4Xdi_10serde_json2de9SeqAccessINtNtB2E_4read6IoReadNtNtCshtXwObSDtjQ_3std2fs4FileEEE0Bf_
FN:138,_RNCNvMs_NtCskCqsO1Mcf26_9jamliquor6schemaNtB6_5State11apply_block0B8_
FN:290,_RINvNtNtCskCqsO1Mcf26_9jamliquor6schema7hex_vec11deserializeQINtNtCs1c1XNOj4Xdi_10serde_json2de12DeserializerINtNtB12_4read6IoReadNtNtCshtXwObSDtjQ_3std2fs4FileEEEB6_
FN:297,_RNCINvNtNtCskCqsO1Mcf26_9jamliquor6schema7hex_vec11deserializeQINtNtCs1c1XNOj4Xdi_10serde_json2de12DeserializerINtNtB14_4read6IoReadNtNtCshtXwObSDtjQ_3std2fs4FileEEE0B8_
FN:254,_RINvNtNtCskCqsO1Mcf26_9jamliquor6schema3hex9serializepEB6_
FN:283,_RINvNtNtCskCqsO1Mcf26_9jamliquor6schema7hex_vec9serializepEB6_
FN:147,_RNCINvXNvXNvNtCskCqsO1Mcf26_9jamliquor6schemas_1__NtBa_10OpaqueHashNtNtCs4G1IbnFyWZE_5serde2de11Deserialize11deserializeNtB5_9___VisitorNtB15_7Visitor9visit_seqpE0Bc_
FN:54,_RNvMNtCskCqsO1Mcf26_9jamliquor6schemaNtB2_11TicketState3new
FN:98,_RNvMNtCskCqsO1Mcf26_9jamliquor6schemaNtB2_11TicketState9get_stats
FN:158,_RNvMs0_NtCskCqsO1Mcf26_9jamliquor6schemaNtB5_10OpaqueHash3new
FN:222,_RNvMs2_NtCskCqsO1Mcf26_9jamliquor6schemaNtB5_10TicketBody8validate
FN:355,_RNvMs3_NtCskCqsO1Mcf26_9jamliquor6schemaNtB5_13EntropySource16get_next_entropy
FN:360,_RNvMs3_NtCskCqsO1Mcf26_9jamliquor6schemaNtB5_13EntropySource17get_final_entropy
FN:350,_RNvMs3_NtCskCqsO1Mcf26_9jamliquor6schemaNtB5_13EntropySource19get_current_entropy
FN:114,_RNvMs_NtCskCqsO1Mcf26_9jamliquor6schemaNtB4_5State11get_counter
FN:119,_RNvMs_NtCskCqsO1Mcf26_9jamliquor6schemaNtB4_5State16get_ticket_stats
FN:261,_RINvNtNtCskCqsO1Mcf26_9jamliquor6schema3hex11deserializeQINtNtCs1c1XNOj4Xdi_10serde_json2de12DeserializerINtNtBY_4read6IoReadNtNtCshtXwObSDtjQ_3std2fs4FileEEEB6_
FN:268,_RNCINvNtNtCskCqsO1Mcf26_9jamliquor6schema3hex11deserializeQINtNtCs1c1XNOj4Xdi_10serde_json2de12DeserializerINtNtB10_4read6IoReadNtNtCshtXwObSDtjQ_3std2fs4FileEEE0B8_
FN:254,_RINvNtNtCs2UjflPAciXa_9jamliquor6schema3hex9serializepEB6_
FN:283,_RINvNtNtCs2UjflPAciXa_9jamliquor6schema7hex_vec9serializepEB6_
FN:147,_RNCINvXNvXNvNtCs2UjflPAciXa_9jamliquor6schemas_1__NtBa_10OpaqueHashNtNtCs4G1IbnFyWZE_5serde2de11Deserialize11deserializeNtB5_9___VisitorNtB15_7Visitor9visit_seqpE0Bc_
FN:54,_RNvMNtCs2UjflPAciXa_9jamliquor6schemaNtB2_11TicketState3new
FN:158,_RNvMs0_NtCs2UjflPAciXa_9jamliquor6schemaNtB5_10OpaqueHash3new
FN:222,_RNvMs2_NtCs2UjflPAciXa_9jamliquor6schemaNtB5_10TicketBody8validate
FN:58,_RNvMNtCs2UjflPAciXa_9jamliquor6schemaNtB2_11TicketState13apply_tickets
FN:98,_RNvMNtCs2UjflPAciXa_9jamliquor6schemaNtB2_11TicketState9get_stats
FN:152,_RNvMs0_NtCs2UjflPAciXa_9jamliquor6schemaNtB5_10OpaqueHash8as_bytes
FN:201,_RNvMs1_NtCs2UjflPAciXa_9jamliquor6schemaNtB5_14TicketEnvelope8validate
FN:314,_RNvMs3_NtCs2UjflPAciXa_9jamliquor6schemaNtB5_13EntropySource10from_bytes
FN:355,_RNvMs3_NtCs2UjflPAciXa_9jamliquor6schemaNtB5_13EntropySource16get_next_entropy
FN:360,_RNvMs3_NtCs2UjflPAciXa_9jamliquor6schemaNtB5_13EntropySource17get_final_entropy
FN:350,_RNvMs3_NtCs2UjflPAciXa_9jamliquor6schemaNtB5_13EntropySource19get_current_entropy
FN:338,_RNvMs3_NtCs2UjflPAciXa_9jamliquor6schemaNtB5_13EntropySource24validate_with_epoch_mark
FN:366,_RNvMs4_NtCs2UjflPAciXa_9jamliquor6schemaNtB5_6Header16validate_entropy
FN:123,_RNvMs_NtCs2UjflPAciXa_9jamliquor6schemaNtB4_5State11apply_block
FN:114,_RNvMs_NtCs2UjflPAciXa_9jamliquor6schemaNtB4_5State11get_counter
FN:109,_RNvMs_NtCs2UjflPAciXa_9jamliquor6schemaNtB4_5State13get_last_slot
FN:119,_RNvMs_NtCs2UjflPAciXa_9jamliquor6schemaNtB4_5State16get_ticket_stats
FN:105,_RNvMs_NtCs2UjflPAciXa_9jamliquor6schemaNtB4_5State3new
FN:384,_RNvNtNtCs2UjflPAciXa_9jamliquor6schema5testss_30test_entropy_source_validation
FN:290,_RINvNtNtCs2UjflPAciXa_9jamliquor6schema7hex_vec11deserializeQINtNtCs1c1XNOj4Xdi_10serde_json2de12DeserializerINtNtB12_4read6IoReadNtNtCshtXwObSDtjQ_3std2fs4FileEEEB6_
FN:297,_RNCINvNtNtCs2UjflPAciXa_9jamliquor6schema7hex_vec11deserializeQINtNtCs1c1XNOj4Xdi_10serde_json2de12DeserializerINtNtB14_4read6IoReadNtNtCshtXwObSDtjQ_3std2fs4FileEEE0B8_
FN:171,_RNCINvXs0_NvXNvNtCs2UjflPAciXa_9jamliquor6schemas3_1__NtBd_6HeaderNtNtCs4G1IbnFyWZE_5serde2de11Deserialize11deserializeNtB8_9___VisitorNtB14_7Visitor9visit_seqINtNtCs1c1XNOj4Xdi_10serde_json2de9SeqAccessINtNtB2C_4read6IoReadNtNtCshtXwObSDtjQ_3std2fs4FileEEE0Bf_
FN:171,_RNCINvXs0_NvXNvNtCs2UjflPAciXa_9jamliquor6schemas3_1__NtBd_6HeaderNtNtCs4G1IbnFyWZE_5serde2de11Deserialize11deserializeNtB8_9___VisitorNtB14_7Visitor9visit_seqINtNtCs1c1XNOj4Xdi_10serde_json2de9SeqAccessINtNtB2C_4read6IoReadNtNtCshtXwObSDtjQ_3std2fs4FileEEEs_0Bf_
FN:193,_RNCINvXs0_NvXNvNtCs2UjflPAciXa_9jamliquor6schemas5_1__NtBd_14TicketEnvelopeNtNtCs4G1IbnFyWZE_5serde2de11Deserialize11deserializeNtB8_9___VisitorNtB1d_7Visitor9visit_seqINtNtCs1c1XNOj4Xdi_10serde_json2de9SeqAccessINtNtB2L_4read6IoReadNtNtCshtXwObSDtjQ_3std2fs4FileEEE0Bf_
FN:228,_RNCINvXs0_NvXNvNtCs2UjflPAciXa_9jamliquor6schemas9_1__NtBd_8PreimageNtNtCs4G1IbnFyWZE_5serde2de11Deserialize11deserializeNtB8_9___VisitorNtB16_7Visitor9visit_seqINtNtCs1c1XNOj4Xdi_10serde_json2de9SeqAccessINtNtB2E_4read6IoReadNtNtCshtXwObSDtjQ_3std2fs4FileEEE0Bf_
FN:138,_RNCNvMs_NtCs2UjflPAciXa_9jamliquor6schemaNtB6_5State11apply_block0B8_
FN:261,_RINvNtNtCs2UjflPAciXa_9jamliquor6schema3hex11deserializeQINtNtCs1c1XNOj4Xdi_10serde_json2de12DeserializerINtNtBY_4read6IoReadNtNtCshtXwObSDtjQ_3std2fs4FileEEEB6_
FN:268,_RNCINvNtNtCs2UjflPAciXa_9jamliquor6schema3hex11deserializeQINtNtCs1c1XNOj4Xdi_10serde_json2de12DeserializerINtNtB10_4read6IoReadNtNtCshtXwObSDtjQ_3std2fs4FileEEE0B8_
FN:261,_RINvNtNtCsck7938GCoVe_9jamliquor6schema3hex11deserializepEB6_
FN:254,_RINvNtNtCsck7938GCoVe_9jamliquor6schema3hex9serializepEB6_
FN:290,_RINvNtNtCsck7938GCoVe_9jamliquor6schema7hex_vec11deserializepEB6_
FN:283,_RINvNtNtCsck7938GCoVe_9jamliquor6schema7hex_vec9serializepEB6_
FN:268,_RNCINvNtNtCsck7938GCoVe_9jamliquor6schema3hex11deserializepE0B8_
FN:297,_RNCINvNtNtCsck7938GCoVe_9jamliquor6schema7hex_vec11deserializepE0B8_
FN:147,_RNCINvXNvXNvNtCsck7938GCoVe_9jamliquor6schemas_1__NtBa_10OpaqueHashNtNtCs4G1IbnFyWZE_5serde2de11Deserialize11deserializeNtB5_9___VisitorNtB15_7Visitor9visit_seqpE0Bc_
FN:171,_RNCINvXs0_NvXNvNtCsck7938GCoVe_9jamliquor6schemas3_1__NtBd_6HeaderNtNtCs4G1IbnFyWZE_5serde2de11Deserialize11deserializeNtB8_9___VisitorNtB14_7Visitor9visit_seqpE0Bf_
FN:171,_RNCINvXs0_NvXNvNtCsck7938GCoVe_9jamliquor6schemas3_1__NtBd_6HeaderNtNtCs4G1IbnFyWZE_5serde2de11Deserialize11deserializeNtB8_9___VisitorNtB14_7Visitor9visit_seqpEs_0Bf_
FN:193,_RNCINvXs0_NvXNvNtCsck7938GCoVe_9jamliquor6schemas5_1__NtBd_14TicketEnvelopeNtNtCs4G1IbnFyWZE_5serde2de11Deserialize11deserializeNtB8_9___VisitorNtB1d_7Visitor9visit_seqpE0Bf_
FN:228,_RNCINvXs0_NvXNvNtCsck7938GCoVe_9jamliquor6schemas9_1__NtBd_8PreimageNtNtCs4G1IbnFyWZE_5serde2de11Deserialize11deserializeNtB8_9___VisitorNtB16_7Visitor9visit_seqpE0Bf_
FN:138,_RNCNvMs_NtCsck7938GCoVe_9jamliquor6schemaNtB6_5State11apply_block0B8_
FN:58,_RNvMNtCsck7938GCoVe_9jamliquor6schemaNtB2_11TicketState13apply_tickets
FN:54,_RNvMNtCsck7938GCoVe_9jamliquor6schemaNtB2_11TicketState3new
FN:98,_RNvMNtCsck7938GCoVe_9jamliquor6schemaNtB2_11TicketState9get_stats
FN:158,_RNvMs0_NtCsck7938GCoVe_9jamliquor6schemaNtB5_10OpaqueHash3new
FN:201,_RNvMs1_NtCsck7938GCoVe_9jamliquor6schemaNtB5_14TicketEnvelope8validate
FN:222,_RNvMs2_NtCsck7938GCoVe_9jamliquor6schemaNtB5_10TicketBody8validate
FN:366,_RNvMs4_NtCsck7938GCoVe_9jamliquor6schemaNtB5_6Header16validate_entropy
FN:123,_RNvMs_NtCsck7938GCoVe_9jamliquor6schemaNtB4_5State11apply_block
FN:114,_RNvMs_NtCsck7938GCoVe_9jamliquor6schemaNtB4_5State11get_counter
FN:109,_RNvMs_NtCsck7938GCoVe_9jamliquor6schemaNtB4_5State13get_last_slot
FN:119,_RNvMs_NtCsck7938GCoVe_9jamliquor6schemaNtB4_5State16get_ticket_stats
FN:105,_RNvMs_NtCsck7938GCoVe_9jamliquor6schemaNtB4_5State3new
FN:384,_RNvNtNtCsck7938GCoVe_9jamliquor6schema5testss_30test_entropy_source_validation
FN:152,_RNvMs0_NtCsck7938GCoVe_9jamliquor6schemaNtB5_10OpaqueHash8as_bytes
FN:314,_RNvMs3_NtCsck7938GCoVe_9jamliquor6schemaNtB5_13EntropySource10from_bytes
FN:355,_RNvMs3_NtCsck7938GCoVe_9jamliquor6schemaNtB5_13EntropySource16get_next_entropy
FN:360,_RNvMs3_NtCsck7938GCoVe_9jamliquor6schemaNtB5_13EntropySource17get_final_entropy
FN:350,_RNvMs3_NtCsck7938GCoVe_9jamliquor6schemaNtB5_13EntropySource19get_current_entropy
FN:338,_RNvMs3_NtCsck7938GCoVe_9jamliquor6schemaNtB5_13EntropySource24validate_with_epoch_mark
FN:171,_RNCINvXs0_NvXNvNtCs8sy5ze5XGxF_9jamliquor6schemas3_1__NtBd_6HeaderNtNtCs4G1IbnFyWZE_5serde2de11Deserialize11deserializeNtB8_9___VisitorNtB14_7Visitor9visit_seqINtNtCs1c1XNOj4Xdi_10serde_json2de9SeqAccessINtNtB2C_4read6IoReadNtNtCshtXwObSDtjQ_3std2fs4FileEEE0Csi8aaXscFoSs_3lib
FN:171,_RNCINvXs0_NvXNvNtCs8sy5ze5XGxF_9jamliquor6schemas3_1__NtBd_6HeaderNtNtCs4G1IbnFyWZE_5serde2de11Deserialize11deserializeNtB8_9___VisitorNtB14_7Visitor9visit_seqINtNtCs1c1XNOj4Xdi_10serde_json2de9SeqAccessINtNtB2C_4read6IoReadNtNtCshtXwObSDtjQ_3std2fs4FileEEEs_0Csi8aaXscFoSs_3lib
FN:193,_RNCINvXs0_NvXNvNtCs8sy5ze5XGxF_9jamliquor6schemas5_1__NtBd_14TicketEnvelopeNtNtCs4G1IbnFyWZE_5serde2de11Deserialize11deserializeNtB8_9___VisitorNtB1d_7Visitor9visit_seqINtNtCs1c1XNOj4Xdi_10serde_json2de9SeqAccessINtNtB2L_4read6IoReadNtNtCshtXwObSDtjQ_3std2fs4FileEEE0Csi8aaXscFoSs_3lib
FN:228,_RNCINvXs0_NvXNvNtCs8sy5ze5XGxF_9jamliquor6schemas9_1__NtBd_8PreimageNtNtCs4G1IbnFyWZE_5serde2de11Deserialize11deserializeNtB8_9___VisitorNtB16_7Visitor9visit_seqINtNtCs1c1XNOj4Xdi_10serde_json2de9SeqAccessINtNtB2E_4read6IoReadNtNtCshtXwObSDtjQ_3std2fs4FileEEE0Csi8aaXscFoSs_3lib
FN:261,_RINvNtNtCs8sy5ze5XGxF_9jamliquor6schema3hex11deserializeQINtNtCs1c1XNOj4Xdi_10serde_json2de12DeserializerINtNtBY_4read6IoReadNtNtCshtXwObSDtjQ_3std2fs4FileEEECsi8aaXscFoSs_3lib
FN:268,_RNCINvNtNtCs8sy5ze5XGxF_9jamliquor6schema3hex11deserializeQINtNtCs1c1XNOj4Xdi_10serde_json2de12DeserializerINtNtB10_4read6IoReadNtNtCshtXwObSDtjQ_3std2fs4FileEEE0Csi8aaXscFoSs_3lib
FN:290,_RINvNtNtCs8sy5ze5XGxF_9jamliquor6schema7hex_vec11deserializeQINtNtCs1c1XNOj4Xdi_10serde_json2de12DeserializerINtNtB12_4read6IoReadNtNtCshtXwObSDtjQ_3std2fs4FileEEECsi8aaXscFoSs_3lib
FN:297,_RNCINvNtNtCs8sy5ze5XGxF_9jamliquor6schema7hex_vec11deserializeQINtNtCs1c1XNOj4Xdi_10serde_json2de12DeserializerINtNtB14_4read6IoReadNtNtCshtXwObSDtjQ_3std2fs4FileEEE0Csi8aaXscFoSs_3lib
FN:58,_RNvMNtCs8sy5ze5XGxF_9jamliquor6schemaNtB2_11TicketState13apply_tickets
FN:54,_RNvMNtCs8sy5ze5XGxF_9jamliquor6schemaNtB2_11TicketState3new
FN:98,_RNvMNtCs8sy5ze5XGxF_9jamliquor6schemaNtB2_11TicketState9get_stats
FN:158,_RNvMs0_NtCs8sy5ze5XGxF_9jamliquor6schemaNtB5_10OpaqueHash3new
FN:152,_RNvMs0_NtCs8sy5ze5XGxF_9jamliquor6schemaNtB5_10OpaqueHash8as_bytes
FN:201,_RNvMs1_NtCs8sy5ze5XGxF_9jamliquor6schemaNtB5_14TicketEnvelope8validate
FN:222,_RNvMs2_NtCs8sy5ze5XGxF_9jamliquor6schemaNtB5_10TicketBody8validate
FN:314,_RNvMs3_NtCs8sy5ze5XGxF_9jamliquor6schemaNtB5_13EntropySource10from_bytes
FN:355,_RNvMs3_NtCs8sy5ze5XGxF_9jamliquor6schemaNtB5_13EntropySource16get_next_entropy
FN:360,_RNvMs3_NtCs8sy5ze5XGxF_9jamliquor6schemaNtB5_13EntropySource17get_final_entropy
FN:350,_RNvMs3_NtCs8sy5ze5XGxF_9jamliquor6schemaNtB5_13EntropySource19get_current_entropy
FN:338,_RNvMs3_NtCs8sy5ze5XGxF_9jamliquor6schemaNtB5_13EntropySource24validate_with_epoch_mark
FN:366,_RNvMs4_NtCs8sy5ze5XGxF_9jamliquor6schemaNtB5_6Header16validate_entropy
FN:123,_RNvMs_NtCs8sy5ze5XGxF_9jamliquor6schemaNtB4_5State11apply_block
FN:114,_RNvMs_NtCs8sy5ze5XGxF_9jamliquor6schemaNtB4_5State11get_counter
FN:109,_RNvMs_NtCs8sy5ze5XGxF_9jamliquor6schemaNtB4_5State13get_last_slot
FN:119,_RNvMs_NtCs8sy5ze5XGxF_9jamliquor6schemaNtB4_5State16get_ticket_stats
FN:105,_RNvMs_NtCs8sy5ze5XGxF_9jamliquor6schemaNtB4_5State3new
FN:138,_RNCNvMs_NtCs8sy5ze5XGxF_9jamliquor6schemaNtB6_5State11apply_block0B8_
FN:261,_RINvNtNtCs8sy5ze5XGxF_9jamliquor6schema3hex11deserializepEB6_
FN:254,_RINvNtNtCs8sy5ze5XGxF_9jamliquor6schema3hex9serializepEB6_
FN:290,_RINvNtNtCs8sy5ze5XGxF_9jamliquor6schema7hex_vec11deserializepEB6_
FN:283,_RINvNtNtCs8sy5ze5XGxF_9jamliquor6schema7hex_vec9serializepEB6_
FN:268,_RNCINvNtNtCs8sy5ze5XGxF_9jamliquor6schema3hex11deserializepE0B8_
FN:297,_RNCINvNtNtCs8sy5ze5XGxF_9jamliquor6schema7hex_vec11deserializepE0B8_
FN:147,_RNCINvXNvXNvNtCs8sy5ze5XGxF_9jamliquor6schemas_1__NtBa_10OpaqueHashNtNtCs4G1IbnFyWZE_5serde2de11Deserialize11deserializeNtB5_9___VisitorNtB15_7Visitor9visit_seqpE0Bc_
FN:171,_RNCINvXs0_NvXNvNtCs8sy5ze5XGxF_9jamliquor6schemas3_1__NtBd_6HeaderNtNtCs4G1IbnFyWZE_5serde2de11Deserialize11deserializeNtB8_9___VisitorNtB14_7Visitor9visit_seqpE0Bf_
FN:171,_RNCINvXs0_NvXNvNtCs8sy5ze5XGxF_9jamliquor6schemas3_1__NtBd_6HeaderNtNtCs4G1IbnFyWZE_5serde2de11Deserialize11deserializeNtB8_9___VisitorNtB14_7Visitor9visit_seqpEs_0Bf_
FN:193,_RNCINvXs0_NvXNvNtCs8sy5ze5XGxF_9jamliquor6schemas5_1__NtBd_14TicketEnvelopeNtNtCs4G1IbnFyWZE_5serde2de11Deserialize11deserializeNtB8_9___VisitorNtB1d_7Visitor9visit_seqpE0Bf_
FN:228,_RNCINvXs0_NvXNvNtCs8sy5ze5XGxF_9jamliquor6schemas9_1__NtBd_8PreimageNtNtCs4G1IbnFyWZE_5serde2de11Deserialize11deserializeNtB8_9___VisitorNtB16_7Visitor9visit_seqpE0Bf_
FNDA:0,_RNvMNtCskCqsO1Mcf26_9jamliquor6schemaNtB2_11TicketState13apply_tickets
FNDA:0,_RNvMs0_NtCskCqsO1Mcf26_9jamliquor6schemaNtB5_10OpaqueHash8as_bytes
FNDA:0,_RNvMs1_NtCskCqsO1Mcf26_9jamliquor6schemaNtB5_14TicketEnvelope8validate
FNDA:0,_RNvMs3_NtCskCqsO1Mcf26_9jamliquor6schemaNtB5_13EntropySource10from_bytes
FNDA:0,_RNvMs3_NtCskCqsO1Mcf26_9jamliquor6schemaNtB5_13EntropySource24validate_with_epoch_mark
FNDA:0,_RNvMs4_NtCskCqsO1Mcf26_9jamliquor6schemaNtB5_6Header16validate_entropy
FNDA:0,_RNvMs_NtCskCqsO1Mcf26_9jamliquor6schemaNtB4_5State11apply_block
FNDA:0,_RNvMs_NtCskCqsO1Mcf26_9jamliquor6schemaNtB4_5State13get_last_slot
FNDA:0,_RNvMs_NtCskCqsO1Mcf26_9jamliquor6schemaNtB4_5State3new
FNDA:0,_RNCINvXs0_NvXNvNtCskCqsO1Mcf26_9jamliquor6schemas3_1__NtBd_6HeaderNtNtCs4G1IbnFyWZE_5serde2de11Deserialize11deserializeNtB8_9___VisitorNtB14_7Visitor9visit_seqINtNtCs1c1XNOj4Xdi_10serde_json2de9SeqAccessINtNtB2C_4read6IoReadNtNtCshtXwObSDtjQ_3std2fs4FileEEE0Bf_
FNDA:0,_RNCINvXs0_NvXNvNtCskCqsO1Mcf26_9jamliquor6schemas3_1__NtBd_6HeaderNtNtCs4G1IbnFyWZE_5serde2de11Deserialize11deserializeNtB8_9___VisitorNtB14_7Visitor9visit_seqINtNtCs1c1XNOj4Xdi_10serde_json2de9SeqAccessINtNtB2C_4read6IoReadNtNtCshtXwObSDtjQ_3std2fs4FileEEEs_0Bf_
FNDA:0,_RNCINvXs0_NvXNvNtCskCqsO1Mcf26_9jamliquor6schemas5_1__NtBd_14TicketEnvelopeNtNtCs4G1IbnFyWZE_5serde2de11Deserialize11deserializeNtB8_9___VisitorNtB1d_7Visitor9visit_seqINtNtCs1c1XNOj4Xdi_10serde_json2de9SeqAccessINtNtB2L_4read6IoReadNtNtCshtXwObSDtjQ_3std2fs4FileEEE0Bf_
FNDA:0,_RNCINvXs0_NvXNvNtCskCqsO1Mcf26_9jamliquor6schemas9_1__NtBd_8PreimageNtNtCs4G1IbnFyWZE_5serde2de11Deserialize11deserializeNtB8_9___VisitorNtB16_7Visitor9visit_seqINtNtCs1c1XNOj4Xdi_10serde_json2de9SeqAccessINtNtB2E_4read6IoReadNtNtCshtXwObSDtjQ_3std2fs4FileEEE0Bf_
FNDA:0,_RNCNvMs_NtCskCqsO1Mcf26_9jamliquor6schemaNtB6_5State11apply_block0B8_
FNDA:0,_RINvNtNtCskCqsO1Mcf26_9jamliquor6schema7hex_vec11deserializeQINtNtCs1c1XNOj4Xdi_10serde_json2de12DeserializerINtNtB12_4read6IoReadNtNtCshtXwObSDtjQ_3std2fs4FileEEEB6_
FNDA:0,_RNCINvNtNtCskCqsO1Mcf26_9jamliquor6schema7hex_vec11deserializeQINtNtCs1c1XNOj4Xdi_10serde_json2de12DeserializerINtNtB14_4read6IoReadNtNtCshtXwObSDtjQ_3std2fs4FileEEE0B8_
FNDA:0,_RINvNtNtCskCqsO1Mcf26_9jamliquor6schema3hex9serializepEB6_
FNDA:0,_RINvNtNtCskCqsO1Mcf26_9jamliquor6schema7hex_vec9serializepEB6_
FNDA:0,_RNCINvXNvXNvNtCskCqsO1Mcf26_9jamliquor6schemas_1__NtBa_10OpaqueHashNtNtCs4G1IbnFyWZE_5serde2de11Deserialize11deserializeNtB5_9___VisitorNtB15_7Visitor9visit_seqpE0Bc_
FNDA:0,_RNvMNtCskCqsO1Mcf26_9jamliquor6schemaNtB2_11TicketState3new
FNDA:0,_RNvMNtCskCqsO1Mcf26_9jamliquor6schemaNtB2_11TicketState9get_stats
FNDA:0,_RNvMs0_NtCskCqsO1Mcf26_9jamliquor6schemaNtB5_10OpaqueHash3new
FNDA:0,_RNvMs2_NtCskCqsO1Mcf26_9jamliquor6schemaNtB5_10TicketBody8validate
FNDA:0,_RNvMs3_NtCskCqsO1Mcf26_9jamliquor6schemaNtB5_13EntropySource16get_next_entropy
FNDA:0,_RNvMs3_NtCskCqsO1Mcf26_9jamliquor6schemaNtB5_13EntropySource17get_final_entropy
FNDA:0,_RNvMs3_NtCskCqsO1Mcf26_9jamliquor6schemaNtB5_13EntropySource19get_current_entropy
FNDA:0,_RNvMs_NtCskCqsO1Mcf26_9jamliquor6schemaNtB4_5State11get_counter
FNDA:0,_RNvMs_NtCskCqsO1Mcf26_9jamliquor6schemaNtB4_5State16get_ticket_stats
FNDA:0,_RINvNtNtCskCqsO1Mcf26_9jamliquor6schema3hex11deserializeQINtNtCs1c1XNOj4Xdi_10serde_json2de12DeserializerINtNtBY_4read6IoReadNtNtCshtXwObSDtjQ_3std2fs4FileEEEB6_
FNDA:0,_RNCINvNtNtCskCqsO1Mcf26_9jamliquor6schema3hex11deserializeQINtNtCs1c1XNOj4Xdi_10serde_json2de12DeserializerINtNtB10_4read6IoReadNtNtCshtXwObSDtjQ_3std2fs4FileEEE0B8_
FNDA:0,_RINvNtNtCs2UjflPAciXa_9jamliquor6schema3hex9serializepEB6_
FNDA:0,_RINvNtNtCs2UjflPAciXa_9jamliquor6schema7hex_vec9serializepEB6_
FNDA:0,_RNCINvXNvXNvNtCs2UjflPAciXa_9jamliquor6schemas_1__NtBa_10OpaqueHashNtNtCs4G1IbnFyWZE_5serde2de11Deserialize11deserializeNtB5_9___VisitorNtB15_7Visitor9visit_seqpE0Bc_
FNDA:0,_RNvMNtCs2UjflPAciXa_9jamliquor6schemaNtB2_11TicketState3new
FNDA:0,_RNvMs0_NtCs2UjflPAciXa_9jamliquor6schemaNtB5_10OpaqueHash3new
FNDA:0,_RNvMs2_NtCs2UjflPAciXa_9jamliquor6schemaNtB5_10TicketBody8validate
FNDA:0,_RNvMNtCs2UjflPAciXa_9jamliquor6schemaNtB2_11TicketState13apply_tickets
FNDA:1,_RNvMNtCs2UjflPAciXa_9jamliquor6schemaNtB2_11TicketState9get_stats
FNDA:8,_RNvMs0_NtCs2UjflPAciXa_9jamliquor6schemaNtB5_10OpaqueHash8as_bytes
FNDA:0,_RNvMs1_NtCs2UjflPAciXa_9jamliquor6schemaNtB5_14TicketEnvelope8validate
FNDA:3,_RNvMs3_NtCs2UjflPAciXa_9jamliquor6schemaNtB5_13EntropySource10from_bytes
FNDA:1,_RNvMs3_NtCs2UjflPAciXa_9jamliquor6schemaNtB5_13EntropySource16get_next_entropy
FNDA:1,_RNvMs3_NtCs2UjflPAciXa_9jamliquor6schemaNtB5_13EntropySource17get_final_entropy
FNDA:1,_RNvMs3_NtCs2UjflPAciXa_9jamliquor6schemaNtB5_13EntropySource19get_current_entropy
FNDA:3,_RNvMs3_NtCs2UjflPAciXa_9jamliquor6schemaNtB5_13EntropySource24validate_with_epoch_mark
FNDA:1,_RNvMs4_NtCs2UjflPAciXa_9jamliquor6schemaNtB5_6Header16validate_entropy
FNDA:1,_RNvMs_NtCs2UjflPAciXa_9jamliquor6schemaNtB4_5State11apply_block
FNDA:1,_RNvMs_NtCs2UjflPAciXa_9jamliquor6schemaNtB4_5State11get_counter
FNDA:2,_RNvMs_NtCs2UjflPAciXa_9jamliquor6schemaNtB4_5State13get_last_slot
FNDA:1,_RNvMs_NtCs2UjflPAciXa_9jamliquor6schemaNtB4_5State16get_ticket_stats
FNDA:1,_RNvMs_NtCs2UjflPAciXa_9jamliquor6schemaNtB4_5State3new
FNDA:1,_RNvNtNtCs2UjflPAciXa_9jamliquor6schema5testss_30test_entropy_source_validation
FNDA:8,_RINvNtNtCs2UjflPAciXa_9jamliquor6schema7hex_vec11deserializeQINtNtCs1c1XNOj4Xdi_10serde_json2de12DeserializerINtNtB12_4read6IoReadNtNtCshtXwObSDtjQ_3std2fs4FileEEEB6_
FNDA:0,_RNCINvNtNtCs2UjflPAciXa_9jamliquor6schema7hex_vec11deserializeQINtNtCs1c1XNOj4Xdi_10serde_json2de12DeserializerINtNtB14_4read6IoReadNtNtCshtXwObSDtjQ_3std2fs4FileEEE0B8_
FNDA:0,_RNCINvXs0_NvXNvNtCs2UjflPAciXa_9jamliquor6schemas3_1__NtBd_6HeaderNtNtCs4G1IbnFyWZE_5serde2de11Deserialize11deserializeNtB8_9___VisitorNtB14_7Visitor9visit_seqINtNtCs1c1XNOj4Xdi_10serde_json2de9SeqAccessINtNtB2C_4read6IoReadNtNtCshtXwObSDtjQ_3std2fs4FileEEE0Bf_
FNDA:0,_RNCINvXs0_NvXNvNtCs2UjflPAciXa_9jamliquor6schemas3_1__NtBd_6HeaderNtNtCs4G1IbnFyWZE_5serde2de11Deserialize11deserializeNtB8_9___VisitorNtB14_7Visitor9visit_seqINtNtCs1c1XNOj4Xdi_10serde_json2de9SeqAccessINtNtB2C_4read6IoReadNtNtCshtXwObSDtjQ_3std2fs4FileEEEs_0Bf_
FNDA:0,_RNCINvXs0_NvXNvNtCs2UjflPAciXa_9jamliquor6schemas5_1__NtBd_14TicketEnvelopeNtNtCs4G1IbnFyWZE_5serde2de11Deserialize11deserializeNtB8_9___VisitorNtB1d_7Visitor9visit_seqINtNtCs1c1XNOj4Xdi_10serde_json2de9SeqAccessINtNtB2L_4read6IoReadNtNtCshtXwObSDtjQ_3std2fs4FileEEE0Bf_
FNDA:0,_RNCINvXs0_NvXNvNtCs2UjflPAciXa_9jamliquor6schemas9_1__NtBd_8PreimageNtNtCs4G1IbnFyWZE_5serde2de11Deserialize11deserializeNtB8_9___VisitorNtB16_7Visitor9visit_seqINtNtCs1c1XNOj4Xdi_10serde_json2de9SeqAccessINtNtB2E_4read6IoReadNtNtCshtXwObSDtjQ_3std2fs4FileEEE0Bf_
FNDA:3,_RNCNvMs_NtCs2UjflPAciXa_9jamliquor6schemaNtB6_5State11apply_block0B8_
FNDA:12,_RINvNtNtCs2UjflPAciXa_9jamliquor6schema3hex11deserializeQINtNtCs1c1XNOj4Xdi_10serde_json2de12DeserializerINtNtBY_4read6IoReadNtNtCshtXwObSDtjQ_3std2fs4FileEEEB6_
FNDA:0,_RNCINvNtNtCs2UjflPAciXa_9jamliquor6schema3hex11deserializeQINtNtCs1c1XNOj4Xdi_10serde_json2de12DeserializerINtNtB10_4read6IoReadNtNtCshtXwObSDtjQ_3std2fs4FileEEE0B8_
FNDA:0,_RINvNtNtCsck7938GCoVe_9jamliquor6schema3hex11deserializepEB6_
FNDA:0,_RINvNtNtCsck7938GCoVe_9jamliquor6schema3hex9serializepEB6_
FNDA:0,_RINvNtNtCsck7938GCoVe_9jamliquor6schema7hex_vec11deserializepEB6_
FNDA:0,_RINvNtNtCsck7938GCoVe_9jamliquor6schema7hex_vec9serializepEB6_
FNDA:0,_RNCINvNtNtCsck7938GCoVe_9jamliquor6schema3hex11deserializepE0B8_
FNDA:0,_RNCINvNtNtCsck7938GCoVe_9jamliquor6schema7hex_vec11deserializepE0B8_
FNDA:0,_RNCINvXNvXNvNtCsck7938GCoVe_9jamliquor6schemas_1__NtBa_10OpaqueHashNtNtCs4G1IbnFyWZE_5serde2de11Deserialize11deserializeNtB5_9___VisitorNtB15_7Visitor9visit_seqpE0Bc_
FNDA:0,_RNCINvXs0_NvXNvNtCsck7938GCoVe_9jamliquor6schemas3_1__NtBd_6HeaderNtNtCs4G1IbnFyWZE_5serde2de11Deserialize11deserializeNtB8_9___VisitorNtB14_7Visitor9visit_seqpE0Bf_
FNDA:0,_RNCINvXs0_NvXNvNtCsck7938GCoVe_9jamliquor6schemas3_1__NtBd_6HeaderNtNtCs4G1IbnFyWZE_5serde2de11Deserialize11deserializeNtB8_9___VisitorNtB14_7Visitor9visit_seqpEs_0Bf_
FNDA:0,_RNCINvXs0_NvXNvNtCsck7938GCoVe_9jamliquor6schemas5_1__NtBd_14TicketEnvelopeNtNtCs4G1IbnFyWZE_5serde2de11Deserialize11deserializeNtB8_9___VisitorNtB1d_7Visitor9visit_seqpE0Bf_
FNDA:0,_RNCINvXs0_NvXNvNtCsck7938GCoVe_9jamliquor6schemas9_1__NtBd_8PreimageNtNtCs4G1IbnFyWZE_5serde2de11Deserialize11deserializeNtB8_9___VisitorNtB16_7Visitor9visit_seqpE0Bf_
FNDA:0,_RNCNvMs_NtCsck7938GCoVe_9jamliquor6schemaNtB6_5State11apply_block0B8_
FNDA:0,_RNvMNtCsck7938GCoVe_9jamliquor6schemaNtB2_11TicketState13apply_tickets
FNDA:0,_RNvMNtCsck7938GCoVe_9jamliquor6schemaNtB2_11TicketState3new
FNDA:0,_RNvMNtCsck7938GCoVe_9jamliquor6schemaNtB2_11TicketState9get_stats
FNDA:0,_RNvMs0_NtCsck7938GCoVe_9jamliquor6schemaNtB5_10OpaqueHash3new
FNDA:0,_RNvMs1_NtCsck7938GCoVe_9jamliquor6schemaNtB5_14TicketEnvelope8validate
FNDA:0,_RNvMs2_NtCsck7938GCoVe_9jamliquor6schemaNtB5_10TicketBody8validate
FNDA:0,_RNvMs4_NtCsck7938GCoVe_9jamliquor6schemaNtB5_6Header16validate_entropy
FNDA:0,_RNvMs_NtCsck7938GCoVe_9jamliquor6schemaNtB4_5State11apply_block
FNDA:0,_RNvMs_NtCsck7938GCoVe_9jamliquor6schemaNtB4_5State11get_counter
FNDA:0,_RNvMs_NtCsck7938GCoVe_9jamliquor6schemaNtB4_5State13get_last_slot
FNDA:0,_RNvMs_NtCsck7938GCoVe_9jamliquor6schemaNtB4_5State16get_ticket_stats
FNDA:0,_RNvMs_NtCsck7938GCoVe_9jamliquor6schemaNtB4_5State3new
FNDA:1,_RNvNtNtCsck7938GCoVe_9jamliquor6schema5testss_30test_entropy_source_validation
FNDA:2,_RNvMs0_NtCsck7938GCoVe_9jamliquor6schemaNtB5_10OpaqueHash8as_bytes
FNDA:2,_RNvMs3_NtCsck7938GCoVe_9jamliquor6schemaNtB5_13EntropySource10from_bytes
FNDA:1,_RNvMs3_NtCsck7938GCoVe_9jamliquor6schemaNtB5_13EntropySource16get_next_entropy
FNDA:1,_RNvMs3_NtCsck7938GCoVe_9jamliquor6schemaNtB5_13EntropySource17get_final_entropy
FNDA:1,_RNvMs3_NtCsck7938GCoVe_9jamliquor6schemaNtB5_13EntropySource19get_current_entropy
FNDA:2,_RNvMs3_NtCsck7938GCoVe_9jamliquor6schemaNtB5_13EntropySource24validate_with_epoch_mark
FNDA:0,_RNCINvXs0_NvXNvNtCs8sy5ze5XGxF_9jamliquor6schemas3_1__NtBd_6HeaderNtNtCs4G1IbnFyWZE_5serde2de11Deserialize11deserializeNtB8_9___VisitorNtB14_7Visitor9visit_seqINtNtCs1c1XNOj4Xdi_10serde_json2de9SeqAccessINtNtB2C_4read6IoReadNtNtCshtXwObSDtjQ_3std2fs4FileEEE0Csi8aaXscFoSs_3lib
FNDA:0,_RNCINvXs0_NvXNvNtCs8sy5ze5XGxF_9jamliquor6schemas3_1__NtBd_6HeaderNtNtCs4G1IbnFyWZE_5serde2de11Deserialize11deserializeNtB8_9___VisitorNtB14_7Visitor9visit_seqINtNtCs1c1XNOj4Xdi_10serde_json2de9SeqAccessINtNtB2C_4read6IoReadNtNtCshtXwObSDtjQ_3std2fs4FileEEEs_0Csi8aaXscFoSs_3lib
FNDA:0,_RNCINvXs0_NvXNvNtCs8sy5ze5XGxF_9jamliquor6schemas5_1__NtBd_14TicketEnvelopeNtNtCs4G1IbnFyWZE_5serde2de11Deserialize11deserializeNtB8_9___VisitorNtB1d_7Visitor9visit_seqINtNtCs1c1XNOj4Xdi_10serde_json2de9SeqAccessINtNtB2L_4read6IoReadNtNtCshtXwObSDtjQ_3std2fs4FileEEE0Csi8aaXscFoSs_3lib
FNDA:0,_RNCINvXs0_NvXNvNtCs8sy5ze5XGxF_9jamliquor6schemas9_1__NtBd_8PreimageNtNtCs4G1IbnFyWZE_5serde2de11Deserialize11deserializeNtB8_9___VisitorNtB16_7Visitor9visit_seqINtNtCs1c1XNOj4Xdi_10serde_json2de9SeqAccessINtNtB2E_4read6IoReadNtNtCshtXwObSDtjQ_3std2fs4FileEEE0Csi8aaXscFoSs_3lib
FNDA:48,_RINvNtNtCs8sy5ze5XGxF_9jamliquor6schema3hex11deserializeQINtNtCs1c1XNOj4Xdi_10serde_json2de12DeserializerINtNtBY_4read6IoReadNtNtCshtXwObSDtjQ_3std2fs4FileEEECsi8aaXscFoSs_3lib
FNDA:0,_RNCINvNtNtCs8sy5ze5XGxF_9jamliquor6schema3hex11deserializeQINtNtCs1c1XNOj4Xdi_10serde_json2de12DeserializerINtNtB10_4read6IoReadNtNtCshtXwObSDtjQ_3std2fs4FileEEE0Csi8aaXscFoSs_3lib
FNDA:32,_RINvNtNtCs8sy5ze5XGxF_9jamliquor6schema7hex_vec11deserializeQINtNtCs1c1XNOj4Xdi_10serde_json2de12DeserializerINtNtB12_4read6IoReadNtNtCshtXwObSDtjQ_3std2fs4FileEEECsi8aaXscFoSs_3lib
FNDA:0,_RNCINvNtNtCs8sy5ze5XGxF_9jamliquor6schema7hex_vec11deserializeQINtNtCs1c1XNOj4Xdi_10serde_json2de12DeserializerINtNtB14_4read6IoReadNtNtCshtXwObSDtjQ_3std2fs4FileEEE0Csi8aaXscFoSs_3lib
FNDA:0,_RNvMNtCs8sy5ze5XGxF_9jamliquor6schemaNtB2_11TicketState13apply_tickets
FNDA:0,_RNvMNtCs8sy5ze5XGxF_9jamliquor6schemaNtB2_11TicketState3new
FNDA:0,_RNvMNtCs8sy5ze5XGxF_9jamliquor6schemaNtB2_11TicketState9get_stats
FNDA:0,_RNvMs0_NtCs8sy5ze5XGxF_9jamliquor6schemaNtB5_10OpaqueHash3new
FNDA:17,_RNvMs0_NtCs8sy5ze5XGxF_9jamliquor6schemaNtB5_10OpaqueHash8as_bytes
FNDA:0,_RNvMs1_NtCs8sy5ze5XGxF_9jamliquor6schemaNtB5_14TicketEnvelope8validate
FNDA:0,_RNvMs2_NtCs8sy5ze5XGxF_9jamliquor6schemaNtB5_10TicketBody8validate
FNDA:4,_RNvMs3_NtCs8sy5ze5XGxF_9jamliquor6schemaNtB5_13EntropySource10from_bytes
FNDA:0,_RNvMs3_NtCs8sy5ze5XGxF_9jamliquor6schemaNtB5_13EntropySource16get_next_entropy
FNDA:0,_RNvMs3_NtCs8sy5ze5XGxF_9jamliquor6schemaNtB5_13EntropySource17get_final_entropy
FNDA:0,_RNvMs3_NtCs8sy5ze5XGxF_9jamliquor6schemaNtB5_13EntropySource19get_current_entropy
FNDA:4,_RNvMs3_NtCs8sy5ze5XGxF_9jamliquor6schemaNtB5_13EntropySource24validate_with_epoch_mark
FNDA:4,_RNvMs4_NtCs8sy5ze5XGxF_9jamliquor6schemaNtB5_6Header16validate_entropy
FNDA:4,_RNvMs_NtCs8sy5ze5XGxF_9jamliquor6schemaNtB4_5State11apply_block
FNDA:0,_RNvMs_NtCs8sy5ze5XGxF_9jamliquor6schemaNtB4_5State11get_counter
FNDA:4,_RNvMs_NtCs8sy5ze5XGxF_9jamliquor6schemaNtB4_5State13get_last_slot
FNDA:0,_RNvMs_NtCs8sy5ze5XGxF_9jamliquor6schemaNtB4_5State16get_ticket_stats
FNDA:6,_RNvMs_NtCs8sy5ze5XGxF_9jamliquor6schemaNtB4_5State3new
FNDA:12,_RNCNvMs_NtCs8sy5ze5XGxF_9jamliquor6schemaNtB6_5State11apply_block0B8_
FNDA:0,_RINvNtNtCs8sy5ze5XGxF_9jamliquor6schema3hex11deserializepEB6_
FNDA:0,_RINvNtNtCs8sy5ze5XGxF_9jamliquor6schema3hex9serializepEB6_
FNDA:0,_RINvNtNtCs8sy5ze5XGxF_9jamliquor6schema7hex_vec11deserializepEB6_
FNDA:0,_RINvNtNtCs8sy5ze5XGxF_9jamliquor6schema7hex_vec9serializepEB6_
FNDA:0,_RNCINvNtNtCs8sy5ze5XGxF_9jamliquor6schema3hex11deserializepE0B8_
FNDA:0,_RNCINvNtNtCs8sy5ze5XGxF_9jamliquor6schema7hex_vec11deserializepE0B8_
FNDA:0,_RNCINvXNvXNvNtCs8sy5ze5XGxF_9jamliquor6schemas_1__NtBa_10OpaqueHashNtNtCs4G1IbnFyWZE_5serde2de11Deserialize11deserializeNtB5_9___VisitorNtB15_7Visitor9visit_seqpE0Bc_
FNDA:0,_RNCINvXs0_NvXNvNtCs8sy5ze5XGxF_9jamliquor6schemas3_1__NtBd_6HeaderNtNtCs4G1IbnFyWZE_5serde2de11Deserialize11deserializeNtB8_9___VisitorNtB14_7Visitor9visit_seqpE0Bf_
FNDA:0,_RNCINvXs0_NvXNvNtCs8sy5ze5XGxF_9jamliquor6schemas3_1__NtBd_6HeaderNtNtCs4G1IbnFyWZE_5serde2de11Deserialize11deserializeNtB8_9___VisitorNtB14_7Visitor9visit_seqpEs_0Bf_
FNDA:0,_RNCINvXs0_NvXNvNtCs8sy5ze5XGxF_9jamliquor6schemas5_1__NtBd_14TicketEnvelopeNtNtCs4G1IbnFyWZE_5serde2de11Deserialize11deserializeNtB8_9___VisitorNtB1d_7Visitor9visit_seqpE0Bf_
FNDA:0,_RNCINvXs0_NvXNvNtCs8sy5ze5XGxF_9jamliquor6schemas9_1__NtBd_8PreimageNtNtCs4G1IbnFyWZE_5serde2de11Deserialize11deserializeNtB8_9___VisitorNtB16_7Visitor9visit_seqpE0Bf_
FNF:30
FNH:17
DA:54,0
DA:55,0
DA:56,0
DA:58,0
DA:59,0
DA:60,0
DA:61,0
DA:62,0
DA:63,0
DA:64,0
DA:65,0
DA:66,0
DA:67,0
DA:68,0
DA:69,0
DA:70,0
DA:71,0
DA:72,0
DA:73,0
DA:76,0
DA:78,0
DA:79,0
DA:80,0
DA:81,0
DA:82,0
DA:83,0
DA:84,0
DA:85,0
DA:86,0
DA:87,0
DA:88,0
DA:89,0
DA:90,0
DA:91,0
DA:94,0
DA:95,0
DA:98,1
DA:99,1
DA:100,1
DA:105,7
DA:106,7
DA:107,7
DA:109,6
DA:110,6
DA:111,6
DA:114,1
DA:115,1
DA:116,1
DA:119,1
DA:120,1
DA:121,1
DA:123,5
DA:124,5
DA:125,5
DA:128,5
DA:129,0
DA:130,0
DA:131,5
DA:134,5
DA:135,5
DA:136,5
DA:137,5
DA:138,15
DA:139,5
DA:140,5
DA:141,5
DA:142,5
DA:143,5
DA:144,5
DA:147,0
DA:152,27
DA:153,27
DA:154,27
DA:158,0
DA:159,0
DA:160,0
DA:171,0
DA:193,0
DA:201,0
DA:202,0
DA:203,0
DA:204,0
DA:205,0
DA:206,0
DA:207,0
DA:208,0
DA:209,0
DA:210,0
DA:211,0
DA:222,0
DA:223,0
DA:224,0
DA:225,0
DA:228,0
DA:254,0
DA:255,0
DA:256,0
DA:257,0
DA:258,0
DA:259,0
DA:261,60
DA:262,60
DA:263,60
DA:264,60
DA:265,60
DA:266,60
DA:267,60
DA:268,60
DA:269,60
DA:270,60
DA:271,0
DA:272,60
DA:273,60
DA:274,60
DA:275,60
DA:276,60
DA:283,0
DA:284,0
DA:285,0
DA:286,0
DA:287,0
DA:288,0
DA:290,40
DA:291,40
DA:292,40
DA:293,40
DA:294,40
DA:295,40
DA:296,40
DA:297,40
DA:298,40
DA:299,40
DA:314,9
DA:315,9
DA:316,2
DA:317,2
DA:318,2
DA:319,2
DA:320,2
DA:321,7
DA:322,7
DA:323,7
DA:324,7
DA:325,7
DA:326,7
DA:327,7
DA:328,7
DA:329,7
DA:330,7
DA:331,7
DA:332,7
DA:333,7
DA:334,7
DA:335,7
DA:336,9
DA:338,9
DA:339,9
DA:340,9
DA:341,2
DA:342,2
DA:343,2
DA:344,7
DA:345,7
DA:346,7
DA:347,9
DA:350,2
DA:351,2
DA:352,2
DA:355,2
DA:356,2
DA:357,2
DA:360,2
DA:361,2
DA:362,2
DA:366,5
DA:368,5
DA:371,5
DA:372,5
DA:373,0
DA:375,5
DA:376,5
DA:384,2
DA:385,2
DA:386,2
DA:387,2
DA:388,2
DA:389,2
DA:392,2
DA:393,2
DA:394,2
DA:395,2
DA:398,2
DA:399,2
DA:402,2
DA:403,2
DA:404,2
DA:405,2
DA:406,2
DA:407,2
DA:410,2
DA:411,2
DA:412,2
DA:413,2
DA:414,2
DA:415,2
DA:416,2
DA:417,2
DA:419,2
DA:420,2
BRF:0
BRH:0
LF:212
LH:136
end_of_record
SF:/home/kd/jamliquor/src/state.rs
FN:25,_RNvMNtCsck7938GCoVe_9jamliquor5stateNtB2_5State11apply_block
FN:16,_RNvMNtCsck7938GCoVe_9jamliquor5stateNtB2_5State11get_counter
FN:12,_RNvMNtCsck7938GCoVe_9jamliquor5stateNtB2_5State13get_last_slot
FN:72,_RNvMNtCsck7938GCoVe_9jamliquor5stateNtB2_5State26validate_state_consistency
FN:20,_RNvMNtCsck7938GCoVe_9jamliquor5stateNtB2_5State3new
FN:25,_RNvMNtCs8sy5ze5XGxF_9jamliquor5stateNtB2_5State11apply_block
FN:16,_RNvMNtCs8sy5ze5XGxF_9jamliquor5stateNtB2_5State11get_counter
FN:12,_RNvMNtCs8sy5ze5XGxF_9jamliquor5stateNtB2_5State13get_last_slot
FN:72,_RNvMNtCs8sy5ze5XGxF_9jamliquor5stateNtB2_5State26validate_state_consistency
FN:20,_RNvMNtCs8sy5ze5XGxF_9jamliquor5stateNtB2_5State3new
FNDA:0,_RNvMNtCsck7938GCoVe_9jamliquor5stateNtB2_5State11apply_block
FNDA:0,_RNvMNtCsck7938GCoVe_9jamliquor5stateNtB2_5State11get_counter
FNDA:0,_RNvMNtCsck7938GCoVe_9jamliquor5stateNtB2_5State13get_last_slot
FNDA:0,_RNvMNtCsck7938GCoVe_9jamliquor5stateNtB2_5State26validate_state_consistency
FNDA:0,_RNvMNtCsck7938GCoVe_9jamliquor5stateNtB2_5State3new
FNDA:2,_RNvMNtCs8sy5ze5XGxF_9jamliquor5stateNtB2_5State11apply_block
FNDA:0,_RNvMNtCs8sy5ze5XGxF_9jamliquor5stateNtB2_5State11get_counter
FNDA:1,_RNvMNtCs8sy5ze5XGxF_9jamliquor5stateNtB2_5State13get_last_slot
FNDA:0,_RNvMNtCs8sy5ze5XGxF_9jamliquor5stateNtB2_5State26validate_state_consistency
FNDA:2,_RNvMNtCs8sy5ze5XGxF_9jamliquor5stateNtB2_5State3new
FNF:5
FNH:3
DA:12,1
DA:13,1
DA:14,1
DA:16,0
DA:17,0
DA:18,0
DA:20,2
DA:21,2
DA:22,2
DA:25,2
DA:26,2
DA:27,2
DA:28,2
DA:30,0
DA:31,0
DA:32,0
DA:33,0
DA:34,0
DA:35,0
DA:36,0
DA:37,0
DA:38,2
DA:40,0
DA:41,0
DA:44,0
DA:45,0
DA:46,0
DA:47,0
DA:48,0
DA:49,2
DA:52,2
DA:53,2
DA:54,2
DA:55,2
DA:56,2
DA:57,2
DA:58,2
DA:59,2
DA:60,0
DA:63,2
DA:64,0
DA:68,2
DA:69,2
DA:72,0
DA:73,0
DA:74,0
DA:75,0
DA:78,0
DA:79,0
DA:80,0
DA:81,0
DA:82,0
DA:83,0
DA:84,0
BRF:0
BRH:0
LF:54
LH:23
end_of_record
